target datalayout = "e-m:e-p270:32:32-p271:32:32-p272:64:64-i64:64-i128:128-f80:128-n8:16:32:64-S128"
target triple = "x86_64-pc-linux-gnu"

%class.QString = type { %struct.QArrayDataPointer }
%struct.QArrayDataPointer = type { ptr, ptr, i64 }
%class.FollowStreamDialog = type <{ %class.WiresharkDialog.base, [3 x i8], ptr, ptr, ptr, ptr, ptr, ptr, %struct._follow_info, ptr, %class.QString, %class.QString, %class.QString, i32, i32, i32, i32, i32, i8, [3 x i8], %struct.nstime_t, i32, i8, i8, [2 x i8], i32, [4 x i8] }>
%class.WiresharkDialog.base = type <{ %class.GeometryStateDialog, ptr, i8, [7 x i8], %class.QString, %class.QList, i32, i8 }>
%class.GeometryStateDialog = type { %class.QDialog, %class.QString, ptr }
%class.QDialog = type { %class.QWidget }
%class.QWidget = type { %class.QObject, %class.QPaintDevice.base, ptr }
%class.QObject = type { ptr, %class.QScopedPointer }
%class.QScopedPointer = type { ptr }
%class.QPaintDevice.base = type <{ ptr, i16 }>
%class.QList = type { %struct.QArrayDataPointer.0 }
%struct.QArrayDataPointer.0 = type { ptr, ptr, i64 }
%struct._follow_info = type { i32, ptr, ptr, [2 x i32], [2 x i32], [2 x ptr], i32, i32, %struct._address, %struct._address, ptr, i64 }
%struct._address = type { i32, i32, ptr, ptr }
%struct.nstime_t = type { i64, i32 }
%class.Ui_FollowStreamDialog = type { ptr, ptr, ptr, ptr, ptr, ptr, ptr, ptr, ptr, ptr, ptr, ptr, ptr, ptr, ptr, ptr, ptr, ptr, ptr, ptr, ptr }
%class.WiresharkDialog = type <{ %class.GeometryStateDialog, ptr, i8, [7 x i8], %class.QString, %class.QList, i32, i8, [3 x i8] }>

; Function Attrs: mustprogress null_pointer_is_valid sspstrong uwtable
define void @_ZN18FollowStreamDialog13updateWidgetsEb(ptr noundef align 8 dereferenceable_or_null(452) %0, i1 noundef zeroext %1) #3 align 2 {
  %3 = alloca ptr, align 8
  %4 = alloca i8, align 1
  %5 = alloca i8, align 1
  store ptr %0, ptr %3, align 8
  %6 = zext i1 %1 to i8
  store i8 %6, ptr %4, align 1
  %7 = load ptr, ptr %3, align 8
  call void @llvm.lifetime.start.p0(i64 1, ptr %5) #2
  %8 = load i8, ptr %4, align 1, !range !6, !noundef !7
  %9 = trunc i8 %8 to i1
  %10 = xor i1 %9, true
  %11 = zext i1 %10 to i8
  store i8 %11, ptr %5, align 1
  %12 = getelementptr inbounds nuw %class.WiresharkDialog, ptr %7, i32 0, i32 2
  %13 = load i8, ptr %12, align 8, !range !6, !noundef !7
  %14 = trunc i8 %13 to i1
  br i1 %14, label %15, label %20

15:                                               ; preds = %2
  %16 = getelementptr inbounds nuw %class.FollowStreamDialog, ptr %7, i32 0, i32 2
  %17 = load ptr, ptr %16, align 8
  %18 = getelementptr inbounds nuw %class.Ui_FollowStreamDialog, ptr %17, i32 0, i32 1
  %19 = load ptr, ptr %18, align 8
  call void @_ZN7QWidget10setEnabledEb(ptr noundef align 8 dereferenceable_or_null(40) %19, i1 noundef zeroext true)
  store i8 0, ptr %5, align 1
  br label %20

20:                                               ; preds = %15, %2
  %21 = getelementptr inbounds nuw %class.FollowStreamDialog, ptr %7, i32 0, i32 2
  %22 = load ptr, ptr %21, align 8
  %23 = getelementptr inbounds nuw %class.Ui_FollowStreamDialog, ptr %22, i32 0, i32 4
  %24 = load ptr, ptr %23, align 8
  %25 = load i8, ptr %5, align 1, !range !6, !noundef !7
  %26 = trunc i8 %25 to i1
  call void @_ZN7QWidget10setEnabledEb(ptr noundef align 8 dereferenceable_or_null(40) %24, i1 noundef zeroext %26)
  %27 = getelementptr inbounds nuw %class.FollowStreamDialog, ptr %7, i32 0, i32 2
  %28 = load ptr, ptr %27, align 8
  %29 = getelementptr inbounds nuw %class.Ui_FollowStreamDialog, ptr %28, i32 0, i32 7
  %30 = load ptr, ptr %29, align 8
  %31 = load i8, ptr %5, align 1, !range !6, !noundef !7
  %32 = trunc i8 %31 to i1
  call void @_ZN7QWidget10setEnabledEb(ptr noundef align 8 dereferenceable_or_null(40) %30, i1 noundef zeroext %32)
  %33 = getelementptr inbounds nuw %class.FollowStreamDialog, ptr %7, i32 0, i32 2
  %34 = load ptr, ptr %33, align 8
  %35 = getelementptr inbounds nuw %class.Ui_FollowStreamDialog, ptr %34, i32 0, i32 12
  %36 = load ptr, ptr %35, align 8
  %37 = load i8, ptr %5, align 1, !range !6, !noundef !7
  %38 = trunc i8 %37 to i1
  %39 = xor i1 %38, true
  call void @_ZN16QAbstractSpinBox11setReadOnlyEb(ptr noundef align 8 dereferenceable_or_null(40) %36, i1 noundef zeroext %39)
  %40 = getelementptr inbounds nuw %class.FollowStreamDialog, ptr %7, i32 0, i32 9
  %41 = load ptr, ptr %40, align 8
  %42 = call ptr @get_follow_sub_stream_id_func(ptr noundef %41)
  %43 = icmp ne ptr %42, null
  br i1 %43, label %44, label %52

44:                                               ; preds = %20
  %45 = getelementptr inbounds nuw %class.FollowStreamDialog, ptr %7, i32 0, i32 2
  %46 = load ptr, ptr %45, align 8
  %47 = getelementptr inbounds nuw %class.Ui_FollowStreamDialog, ptr %46, i32 0, i32 14
  %48 = load ptr, ptr %47, align 8
  %49 = load i8, ptr %5, align 1, !range !6, !noundef !7
  %50 = trunc i8 %49 to i1
  %51 = xor i1 %50, true
  call void @_ZN16QAbstractSpinBox11setReadOnlyEb(ptr noundef align 8 dereferenceable_or_null(40) %48, i1 noundef zeroext %51)
  br label %52

52:                                               ; preds = %44, %20
  %53 = getelementptr inbounds nuw %class.FollowStreamDialog, ptr %7, i32 0, i32 2
  %54 = load ptr, ptr %53, align 8
  %55 = getelementptr inbounds nuw %class.Ui_FollowStreamDialog, ptr %54, i32 0, i32 17
  %56 = load ptr, ptr %55, align 8
  %57 = load i8, ptr %5, align 1, !range !6, !noundef !7
  %58 = trunc i8 %57 to i1
  call void @_ZN7QWidget10setEnabledEb(ptr noundef align 8 dereferenceable_or_null(40) %56, i1 noundef zeroext %58)
  %59 = getelementptr inbounds nuw %class.FollowStreamDialog, ptr %7, i32 0, i32 2
  %60 = load ptr, ptr %59, align 8
  %61 = getelementptr inbounds nuw %class.Ui_FollowStreamDialog, ptr %60, i32 0, i32 19
  %62 = load ptr, ptr %61, align 8
  %63 = load i8, ptr %5, align 1, !range !6, !noundef !7
  %64 = trunc i8 %63 to i1
  call void @_ZN7QWidget10setEnabledEb(ptr noundef align 8 dereferenceable_or_null(40) %62, i1 noundef zeroext %64)
  %65 = getelementptr inbounds nuw %class.FollowStreamDialog, ptr %7, i32 0, i32 3
  %66 = load ptr, ptr %65, align 8
  %67 = load i8, ptr %5, align 1, !range !6, !noundef !7
  %68 = trunc i8 %67 to i1
  call void @_ZN7QWidget10setEnabledEb(ptr noundef align 8 dereferenceable_or_null(40) %66, i1 noundef zeroext %68)
  %69 = getelementptr inbounds nuw %class.FollowStreamDialog, ptr %7, i32 0, i32 5
  %70 = load ptr, ptr %69, align 8
  %71 = load i8, ptr %5, align 1, !range !6, !noundef !7
  %72 = trunc i8 %71 to i1
  call void @_ZN7QWidget10setEnabledEb(ptr noundef align 8 dereferenceable_or_null(40) %70, i1 noundef zeroext %72)
  %73 = getelementptr inbounds nuw %class.FollowStreamDialog, ptr %7, i32 0, i32 6
  %74 = load ptr, ptr %73, align 8
  %75 = load i8, ptr %5, align 1, !range !6, !noundef !7
  %76 = trunc i8 %75 to i1
  call void @_ZN7QWidget10setEnabledEb(ptr noundef align 8 dereferenceable_or_null(40) %74, i1 noundef zeroext %76)
  call void @_ZN15WiresharkDialog13updateWidgetsEv(ptr noundef align 8 dereferenceable_or_null(141) %7)
  call void @llvm.lifetime.end.p0(i64 1, ptr %5) #2
  ret void
}