; Function Attrs: mustprogress null_pointer_is_valid sspstrong uwtable
define void @_ZN18FollowStreamDialog13updateWidgetsEb(ptr noundef align 8 dereferenceable_or_null(452) %0, i1 noundef zeroext %1) local_unnamed_addr #2 align 2 {
  %3 = xor i1 %1, true
  %4 = getelementptr inbounds nuw i8, ptr %0, i64 80
  %5 = load i8, ptr %4, align 8, !range !54, !noundef !55
  %6 = trunc nuw i8 %5 to i1
  br i1 %6, label %7, label %12

7:                                                ; preds = %2
  %8 = getelementptr inbounds nuw i8, ptr %0, i64 144
  %9 = load ptr, ptr %8, align 8
  %10 = getelementptr inbounds nuw i8, ptr %9, i64 8
  %11 = load ptr, ptr %10, align 8
  tail call void @_ZN7QWidget10setEnabledEb(ptr noundef align 8 dereferenceable_or_null(40) %11, i1 noundef zeroext true)
  br label %12

12:                                               ; preds = %7, %2
  %.0 = phi i1 [ false, %7 ], [ %3, %2 ]
  %13 = getelementptr inbounds nuw i8, ptr %0, i64 144
  %14 = load ptr, ptr %13, align 8
  %15 = getelementptr inbounds nuw i8, ptr %14, i64 32
  %16 = load ptr, ptr %15, align 8
  tail call void @_ZN7QWidget10setEnabledEb(ptr noundef align 8 dereferenceable_or_null(40) %16, i1 noundef zeroext %.0)
  %17 = load ptr, ptr %13, align 8
  %18 = getelementptr inbounds nuw i8, ptr %17, i64 56
  %19 = load ptr, ptr %18, align 8
  tail call void @_ZN7QWidget10setEnabledEb(ptr noundef align 8 dereferenceable_or_null(40) %19, i1 noundef zeroext %.0)
  %20 = load ptr, ptr %13, align 8
  %21 = getelementptr inbounds nuw i8, ptr %20, i64 96
  %22 = load ptr, ptr %21, align 8
  %23 = xor i1 %.0, true
  tail call void @_ZN16QAbstractSpinBox11setReadOnlyEb(ptr noundef align 8 dereferenceable_or_null(40) %22, i1 noundef zeroext %23)
  %24 = getelementptr inbounds nuw i8, ptr %0, i64 320
  %25 = load ptr, ptr %24, align 8
  %26 = tail call ptr @get_follow_sub_stream_id_func(ptr noundef %25)
  %.not = icmp eq ptr %26, null
  br i1 %.not, label %31, label %27

27:                                               ; preds = %12
  %28 = load ptr, ptr %13, align 8
  %29 = getelementptr inbounds nuw i8, ptr %28, i64 112
  %30 = load ptr, ptr %29, align 8
  tail call void @_ZN16QAbstractSpinBox11setReadOnlyEb(ptr noundef align 8 dereferenceable_or_null(40) %30, i1 noundef zeroext %23)
  br label %31

31:                                               ; preds = %27, %12
  %32 = load ptr, ptr %13, align 8
  %33 = getelementptr inbounds nuw i8, ptr %32, i64 136
  %34 = load ptr, ptr %33, align 8
  tail call void @_ZN7QWidget10setEnabledEb(ptr noundef align 8 dereferenceable_or_null(40) %34, i1 noundef zeroext %.0)
  %35 = load ptr, ptr %13, align 8
  %36 = getelementptr inbounds nuw i8, ptr %35, i64 152
  %37 = load ptr, ptr %36, align 8
  tail call void @_ZN7QWidget10setEnabledEb(ptr noundef align 8 dereferenceable_or_null(40) %37, i1 noundef zeroext %.0)
  %38 = getelementptr inbounds nuw i8, ptr %0, i64 152
  %39 = load ptr, ptr %38, align 8
  tail call void @_ZN7QWidget10setEnabledEb(ptr noundef align 8 dereferenceable_or_null(40) %39, i1 noundef zeroext %.0)
  %40 = getelementptr inbounds nuw i8, ptr %0, i64 168
  %41 = load ptr, ptr %40, align 8
  tail call void @_ZN7QWidget10setEnabledEb(ptr noundef align 8 dereferenceable_or_null(40) %41, i1 noundef zeroext %.0)
  %42 = getelementptr inbounds nuw i8, ptr %0, i64 176
  %43 = load ptr, ptr %42, align 8
  tail call void @_ZN7QWidget10setEnabledEb(ptr noundef align 8 dereferenceable_or_null(40) %43, i1 noundef zeroext %.0)
  tail call void @_ZN15WiresharkDialog13updateWidgetsEv(ptr noundef align 8 dereferenceable_or_null(141) %0)
  ret void
}